target datalayout = "e-m:e-p270:32:32-p271:32:32-p272:64:64-i64:64-i128:128-f80:128-n8:16:32:64-S128"
target triple = "x86_64-pc-linux-gnu"

%struct.repository = type { ptr, ptr, ptr, ptr, ptr, %struct.strmap, %struct.strmap, %struct.repo_path_cache, ptr, ptr, ptr, ptr, %struct.repo_settings, ptr, ptr, ptr, ptr, ptr, ptr, i32, i32, i32, ptr, ptr, i32, i32, i8 }
%struct.strmap = type { %struct.hashmap, ptr, i8 }
%struct.hashmap = type { ptr, ptr, ptr, i32, i32, i32, i32, i8 }
%struct.repo_path_cache = type { ptr, ptr, ptr, ptr, ptr, ptr, ptr }
%struct.repo_settings = type { i32, i32, i32, i32, i32, i32, i32, i32, i32, i32, i32, i32, ptr, i32, i32, i32, i32, i32, i32, i32, i64, i64, i64 }

@.str.12 = private unnamed_addr constant [11 x i8] c"unregister\00", align 1
@the_repository = external global ptr, align 8
@.str.126 = private unnamed_addr constant [38 x i8] c"Scalar enlistments require a worktree\00", align 1
@.str.127 = private unnamed_addr constant [7 x i8] c"config\00", align 1
@.str.128 = private unnamed_addr constant [9 x i8] c"--global\00", align 1
@.str.129 = private unnamed_addr constant [6 x i8] c"--get\00", align 1
@.str.130 = private unnamed_addr constant [14 x i8] c"--fixed-value\00", align 1
@.str.131 = private unnamed_addr constant [12 x i8] c"scalar.repo\00", align 1
@.str.132 = private unnamed_addr constant [6 x i8] c"--add\00", align 1
@.str.133 = private unnamed_addr constant [8 x i8] c"--unset\00", align 1
@.str.134 = private unnamed_addr constant [17 x i8] c"--no-fixed-value\00", align 1
@.str.135 = private unnamed_addr constant [12 x i8] c"maintenance\00", align 1
@.str.136 = private unnamed_addr constant [6 x i8] c"start\00", align 1
@.str.137 = private unnamed_addr constant [8 x i8] c"--force\00", align 1
@.str.151 = private unnamed_addr constant [31 x i8] c"could not turn off maintenance\00", align 1
@.str.152 = private unnamed_addr constant [28 x i8] c"could not remove enlistment\00", align 1

; Function Attrs: nounwind uwtable
define internal i32 @add_or_remove_enlistment(i32 noundef %0) #0 {
  %2 = alloca i32, align 4
  %3 = alloca i32, align 4
  %4 = alloca i32, align 4
  %5 = alloca i32, align 4
  store i32 %0, ptr %3, align 4, !tbaa !11
  call void @llvm.lifetime.start.p0(i64 4, ptr %4) #12
  %6 = load ptr, ptr @the_repository, align 8, !tbaa !43
  %7 = getelementptr inbounds nuw %struct.repository, ptr %6, i32 0, i32 10
  %8 = load ptr, ptr %7, align 8, !tbaa !92
  %9 = icmp ne ptr %8, null
  br i1 %9, label %12, label %10

10:                                               ; preds = %1
  %11 = call ptr @_(ptr noundef @.str.126)
  call void (ptr, ...) @die(ptr noundef %11) #11
  unreachable

12:                                               ; preds = %1
  %13 = load ptr, ptr @the_repository, align 8, !tbaa !43
  %14 = getelementptr inbounds nuw %struct.repository, ptr %13, i32 0, i32 10
  %15 = load ptr, ptr %14, align 8, !tbaa !92
  %16 = call i32 (ptr, ...) @run_git(ptr noundef @.str.127, ptr noundef @.str.128, ptr noundef @.str.129, ptr noundef @.str.130, ptr noundef @.str.131, ptr noundef %15, ptr noundef null)
  store i32 %16, ptr %4, align 4, !tbaa !11
  %17 = load i32, ptr %3, align 4, !tbaa !11
  %18 = icmp ne i32 %17, 0
  br i1 %18, label %19, label %22

19:                                               ; preds = %12
  %20 = load i32, ptr %4, align 4, !tbaa !11
  %21 = icmp ne i32 %20, 0
  br i1 %21, label %22, label %28

22:                                               ; preds = %19, %12
  %23 = load i32, ptr %3, align 4, !tbaa !11
  %24 = icmp ne i32 %23, 0
  br i1 %24, label %29, label %25

25:                                               ; preds = %22
  %26 = load i32, ptr %4, align 4, !tbaa !11
  %27 = icmp ne i32 %26, 0
  br i1 %27, label %28, label %29

28:                                               ; preds = %25, %19
  store i32 0, ptr %2, align 4
  store i32 1, ptr %5, align 4
  br label %40

29:                                               ; preds = %25, %22
  %30 = load i32, ptr %3, align 4, !tbaa !11
  %31 = icmp ne i32 %30, 0
  %32 = select i1 %31, ptr @.str.132, ptr @.str.133
  %33 = load i32, ptr %3, align 4, !tbaa !11
  %34 = icmp ne i32 %33, 0
  %35 = select i1 %34, ptr @.str.134, ptr @.str.130
  %36 = load ptr, ptr @the_repository, align 8, !tbaa !43
  %37 = getelementptr inbounds nuw %struct.repository, ptr %36, i32 0, i32 10
  %38 = load ptr, ptr %37, align 8, !tbaa !92
  %39 = call i32 (ptr, ...) @run_git(ptr noundef @.str.127, ptr noundef @.str.128, ptr noundef %32, ptr noundef %35, ptr noundef @.str.131, ptr noundef %38, ptr noundef null)
  store i32 %39, ptr %2, align 4
  store i32 1, ptr %5, align 4
  br label %40

40:                                               ; preds = %29, %28
  call void @llvm.lifetime.end.p0(i64 4, ptr %4) #12
  %41 = load i32, ptr %2, align 4
  ret i32 %41
}

; Function Attrs: inlinehint nounwind uwtable
define internal i32 @const_error() #5 {
  ret i32 -1
}

; Function Attrs: nounwind uwtable
define internal i32 @toggle_maintenance(i32 noundef %0) #0 {
  %2 = alloca i32, align 4
  store i32 %0, ptr %2, align 4, !tbaa !11
  %3 = load i32, ptr %2, align 4, !tbaa !11
  %4 = icmp ne i32 %3, 0
  %5 = select i1 %4, ptr @.str.136, ptr @.str.12
  %6 = load i32, ptr %2, align 4, !tbaa !11
  %7 = icmp ne i32 %6, 0
  %8 = select i1 %7, ptr null, ptr @.str.137
  %9 = call i32 (ptr, ...) @run_git(ptr noundef @.str.135, ptr noundef %5, ptr noundef %8, ptr noundef null)
  ret i32 %9
}

; Function Attrs: nounwind uwtable
define internal i32 @unregister_dir() #0 {
  %1 = alloca i32, align 4
  call void @llvm.lifetime.start.p0(i64 4, ptr %1) #12
  store i32 0, ptr %1, align 4, !tbaa !11
  %2 = call i32 @toggle_maintenance(i32 noundef 0)
  %3 = icmp ne i32 %2, 0
  br i1 %3, label %4, label %8

4:                                                ; preds = %0
  %5 = call ptr @_(ptr noundef @.str.151)
  %6 = call i32 (ptr, ...) @error(ptr noundef %5)
  %7 = call i32 @const_error()
  store i32 %7, ptr %1, align 4, !tbaa !11
  br label %8

8:                                                ; preds = %4, %0
  %9 = call i32 @add_or_remove_enlistment(i32 noundef 0)
  %10 = icmp ne i32 %9, 0
  br i1 %10, label %11, label %15

11:                                               ; preds = %8
  %12 = call ptr @_(ptr noundef @.str.152)
  %13 = call i32 (ptr, ...) @error(ptr noundef %12)
  %14 = call i32 @const_error()
  store i32 %14, ptr %1, align 4, !tbaa !11
  br label %15

15:                                               ; preds = %11, %8
  %16 = load i32, ptr %1, align 4, !tbaa !11
  call void @llvm.lifetime.end.p0(i64 4, ptr %1) #12
  ret i32 %16
}