; Function Attrs: nounwind uwtable
define internal fastcc range(i32 -1, 1) i32 @unregister_dir() unnamed_addr #2 {
  %1 = tail call i32 (ptr, ...) @run_git(ptr noundef nonnull @.str.135, ptr noundef nonnull @.str.12, ptr noundef nonnull @.str.137, ptr noundef null)
  %.not = icmp eq i32 %1, 0
  br i1 %.not, label %7, label %2

2:                                                ; preds = %0
  %3 = load i32, ptr @git_gettext_enabled, align 4, !tbaa !20
  %.not4.i = icmp eq i32 %3, 0
  br i1 %.not4.i, label %_.exit, label %4

4:                                                ; preds = %2
  %5 = tail call ptr @dcgettext(ptr noundef null, ptr noundef nonnull @.str.151, i32 noundef 5) #18
  br label %_.exit

_.exit:                                           ; preds = %2, %4
  %.0.i = phi ptr [ %5, %4 ], [ @.str.151, %2 ]
  %6 = tail call i32 (ptr, ...) @error(ptr noundef %.0.i) #18
  br label %7

7:                                                ; preds = %_.exit, %0
  %.0 = phi i32 [ -1, %_.exit ], [ 0, %0 ]
  %8 = load ptr, ptr @the_repository, align 8, !tbaa !36
  %9 = getelementptr inbounds nuw i8, ptr %8, i64 240
  %10 = load ptr, ptr %9, align 8, !tbaa !77
  %.not.i = icmp eq ptr %10, null
  br i1 %.not.i, label %11, label %13

11:                                               ; preds = %7
  %12 = tail call fastcc ptr @_(ptr noundef nonnull @.str.126)
  tail call void (ptr, ...) @die(ptr noundef %12) #17
  unreachable

13:                                               ; preds = %7
  %14 = tail call i32 (ptr, ...) @run_git(ptr noundef nonnull @.str.127, ptr noundef nonnull @.str.128, ptr noundef nonnull @.str.129, ptr noundef nonnull @.str.130, ptr noundef nonnull @.str.131, ptr noundef nonnull %10, ptr noundef null)
  %.not8 = icmp eq i32 %14, 0
  br i1 %.not8, label %add_or_remove_enlistment.exit, label %add_or_remove_enlistment.exit.thread

add_or_remove_enlistment.exit:                    ; preds = %13
  %15 = load ptr, ptr @the_repository, align 8, !tbaa !36
  %16 = getelementptr inbounds nuw i8, ptr %15, i64 240
  %17 = load ptr, ptr %16, align 8, !tbaa !77
  %18 = tail call i32 (ptr, ...) @run_git(ptr noundef nonnull @.str.127, ptr noundef nonnull @.str.128, ptr noundef nonnull @.str.133, ptr noundef nonnull @.str.130, ptr noundef nonnull @.str.131, ptr noundef %17, ptr noundef null)
  %.not1 = icmp eq i32 %18, 0
  br i1 %.not1, label %add_or_remove_enlistment.exit.thread, label %19

19:                                               ; preds = %add_or_remove_enlistment.exit
  %20 = load i32, ptr @git_gettext_enabled, align 4, !tbaa !20
  %.not4.i3 = icmp eq i32 %20, 0
  br i1 %.not4.i3, label %_.exit5, label %21

21:                                               ; preds = %19
  %22 = tail call ptr @dcgettext(ptr noundef null, ptr noundef nonnull @.str.152, i32 noundef 5) #18
  br label %_.exit5

_.exit5:                                          ; preds = %19, %21
  %.0.i4 = phi ptr [ %22, %21 ], [ @.str.152, %19 ]
  %23 = tail call i32 (ptr, ...) @error(ptr noundef %.0.i4) #18
  br label %add_or_remove_enlistment.exit.thread

add_or_remove_enlistment.exit.thread:             ; preds = %13, %_.exit5, %add_or_remove_enlistment.exit
  %.1 = phi i32 [ -1, %_.exit5 ], [ %.0, %add_or_remove_enlistment.exit ], [ %.0, %13 ]
  ret i32 %.1
}